; Function Attrs: mustprogress nounwind uwtable
define internal fastcc void @_ZZNK4llvm20GIMatchTableExecutor17executeMatchTableIKN12_GLOBAL__N_122X86InstructionSelectorENS_6BitsetILj145EEEMS3_KFSt8optionalINS_11SmallVectorISt8functionIFvRNS_19MachineInstrBuilderEEELj4EEEERNS_14MachineOperandEEMS3_KFvSB_RKNS_12MachineInstrEiEEEbRT_RNS0_12MatcherStateERKNS0_10ExecInfoTyIT0_T1_T2_EERNS_16MachineIRBuilderEPKhRKNS_15TargetInstrInfoERNS_19MachineRegisterInfoERKNS_18TargetRegisterInfoERKNS_16RegisterBankInfoERKSU_PNS_15CodeGenCoverageEENKUlPSK_E_clES1J_(ptr captures(none) %.0.val, ptr readonly captures(none) %.8.val, ptr noundef %0) unnamed_addr #0 align 2 {
  %2 = getelementptr inbounds nuw i8, ptr %.0.val, i64 64
  %.sroa.0.0.copyload.i = load ptr, ptr %2, align 8
  %3 = icmp eq ptr %.sroa.0.0.copyload.i, %0
  br i1 %3, label %4, label %10

4:                                                ; preds = %1
  %5 = getelementptr inbounds nuw i8, ptr %0, i64 24
  %6 = load ptr, ptr %5, align 8
  %7 = getelementptr inbounds nuw i8, ptr %0, i64 8
  %8 = load ptr, ptr %7, align 8
  %9 = getelementptr inbounds nuw i8, ptr %.0.val, i64 56
  store ptr %6, ptr %9, align 8
  store ptr %8, ptr %2, align 8
  br label %10

10:                                               ; preds = %4, %1
  %11 = load ptr, ptr %.8.val, align 8
  %.not = icmp eq ptr %11, null
  br i1 %.not, label %16, label %12

12:                                               ; preds = %10
  %13 = load ptr, ptr %11, align 8
  %14 = getelementptr inbounds nuw i8, ptr %13, i64 16
  %15 = load ptr, ptr %14, align 8
  tail call void %15(ptr noundef nonnull align 8 dereferenceable(72) %11, ptr noundef nonnull align 8 dereferenceable(70) %0) #19
  br label %16

16:                                               ; preds = %12, %10
  tail call void @_ZN4llvm12MachineInstr15eraseFromParentEv(ptr noundef nonnull align 8 dereferenceable(70) %0) #19
  ret void
}